target datalayout = "e-m:e-p270:32:32-p271:32:32-p272:64:64-i64:64-i128:128-f80:128-n8:16:32:64-S128"
target triple = "x86_64-pc-linux-gnu"

@rb_cString = dso_local global i64 0, align 8

; Function Attrs: nounwind sspstrong uwtable
define internal i64 @rb_str_to_s(i64 noundef %0) #0 {
  %2 = alloca i64, align 8
  %3 = alloca i64, align 8
  store i64 %0, ptr %3, align 8, !tbaa !7
  %4 = load i64, ptr %3, align 8, !tbaa !7
  %5 = call i64 @rb_obj_class(i64 noundef %4)
  %6 = load i64, ptr @rb_cString, align 8, !tbaa !7
  %7 = icmp ne i64 %5, %6
  br i1 %7, label %8, label %12

8:                                                ; preds = %1
  %9 = load i64, ptr @rb_cString, align 8, !tbaa !7
  %10 = load i64, ptr %3, align 8, !tbaa !7
  %11 = call i64 @str_duplicate(i64 noundef %9, i64 noundef %10)
  store i64 %11, ptr %2, align 8
  br label %14

12:                                               ; preds = %1
  %13 = load i64, ptr %3, align 8, !tbaa !7
  store i64 %13, ptr %2, align 8
  br label %14

14:                                               ; preds = %12, %8
  %15 = load i64, ptr %2, align 8
  ret i64 %15
}