; Function Attrs: nounwind sspstrong uwtable
define internal i64 @rb_str_to_s(i64 noundef %0) #1 {
  %2 = tail call i64 @rb_obj_class(i64 noundef %0) #29
  %3 = load i64, ptr @rb_cString, align 8, !tbaa !26
  %.not = icmp eq i64 %2, %3
  br i1 %.not, label %6, label %4

4:                                                ; preds = %1
  %5 = tail call fastcc i64 @str_duplicate(i64 noundef %3, i64 noundef %0)
  br label %6

6:                                                ; preds = %1, %4
  %.0 = phi i64 [ %5, %4 ], [ %0, %1 ]
  ret i64 %.0
}